; Function Attrs: mustprogress uwtable
define noundef zeroext i1 @_ZN7rocksdb19MemTableListVersion11GetFromListEPNSt7__cxx114listIPNS_16ReadOnlyMemTableESaIS4_EEERKNS_9LookupKeyEPNS1_12basic_stringIcSt11char_traitsIcESaIcEEEPNS_19PinnableWideColumnsESG_PNS_6StatusEPNS_12MergeContextEPmSN_RKNS_11ReadOptionsEPNS_12ReadCallbackEPb(ptr noundef nonnull readnone align 8 captures(none) dereferenceable(88) %0, ptr noundef readonly %1, ptr noundef nonnull align 8 dereferenceable(224) %2, ptr noundef %3, ptr noundef %4, ptr noundef %5, ptr noundef %6, ptr noundef %7, ptr noundef %8, ptr noundef captures(none) initializes((0, 8)) %9, ptr noundef nonnull align 8 dereferenceable(168) %10, ptr noundef %11, ptr noundef %12) local_unnamed_addr #4 align 2 {
  %14 = alloca i64, align 8
  store i64 72057594037927935, ptr %9, align 8, !tbaa !34
  %.sroa.027.034 = load ptr, ptr %1, align 8, !tbaa !18
  %.not35.not = icmp eq ptr %.sroa.027.034, %1
  br i1 %.not35.not, label %.loopexit, label %.lr.ph

.lr.ph:                                           ; preds = %13, %28
  %.sroa.027.036 = phi ptr [ %.sroa.027.0, %28 ], [ %.sroa.027.034, %13 ]
  %15 = getelementptr inbounds nuw i8, ptr %.sroa.027.036, i64 16
  call void @llvm.lifetime.start.p0(i64 8, ptr nonnull %14) #27
  store i64 72057594037927935, ptr %14, align 8, !tbaa !34
  %16 = load ptr, ptr %15, align 8, !tbaa !21
  %17 = load ptr, ptr %16, align 8, !tbaa !27
  %18 = getelementptr inbounds nuw i8, ptr %17, i64 80
  %19 = load ptr, ptr %18, align 8
  %20 = call noundef zeroext i1 %19(ptr noundef nonnull align 8 dereferenceable(560) %16, ptr noundef nonnull align 8 dereferenceable(224) %2, ptr noundef %3, ptr noundef %4, ptr noundef %5, ptr noundef %6, ptr noundef %7, ptr noundef %8, ptr noundef nonnull %14, ptr noundef nonnull align 8 dereferenceable(168) %10, i1 noundef zeroext true, ptr noundef %11, ptr noundef %12, i1 noundef zeroext true)
  %21 = load i64, ptr %9, align 8, !tbaa !34
  %22 = icmp eq i64 %21, 72057594037927935
  br i1 %22, label %23, label %25

23:                                               ; preds = %.lr.ph
  %24 = load i64, ptr %14, align 8, !tbaa !34
  store i64 %24, ptr %9, align 8, !tbaa !34
  br label %25

25:                                               ; preds = %23, %.lr.ph
  br i1 %20, label %.thread, label %26

26:                                               ; preds = %25
  %27 = load i8, ptr %6, align 8, !tbaa !115
  switch i8 %27, label %.thread [
    i8 0, label %28
    i8 6, label %28
    i8 1, label %28
  ]

.thread:                                          ; preds = %26, %25
  call void @llvm.lifetime.end.p0(i64 8, ptr nonnull %14) #27
  br label %.loopexit

28:                                               ; preds = %26, %26, %26
  call void @llvm.lifetime.end.p0(i64 8, ptr nonnull %14) #27
  %.sroa.027.0 = load ptr, ptr %.sroa.027.036, align 8, !tbaa !18
  %.not.not = icmp eq ptr %.sroa.027.0, %1
  br i1 %.not.not, label %.loopexit, label %.lr.ph

.loopexit:                                        ; preds = %28, %13, %.thread
  %.not33 = phi i1 [ true, %.thread ], [ false, %13 ], [ false, %28 ]
  %.1 = phi i1 [ %20, %.thread ], [ undef, %13 ], [ undef, %28 ]
  %spec.select = and i1 %.not33, %.1
  ret i1 %spec.select
}